; Function Attrs: mustprogress uwtable
define hidden void @_ZN2cv11bioinspired36TransientAreasSegmentationModuleImpl22getSegmentationPictureERKNS_12_OutputArrayE(ptr noundef nonnull readonly align 8 captures(none) dereferenceable(472) %0, ptr noundef nonnull align 8 dereferenceable(24) %1) local_unnamed_addr #3 align 2 {
  %3 = getelementptr inbounds nuw i8, ptr %0, i64 240
  %4 = getelementptr inbounds nuw i8, ptr %0, i64 32
  %5 = load i64, ptr %4, align 8, !tbaa !153
  %6 = trunc i64 %5 to i32
  %7 = getelementptr inbounds nuw i8, ptr %0, i64 40
  %8 = load i64, ptr %7, align 8, !tbaa !154
  %9 = trunc i64 %8 to i32
  tail call void @_ZN2cv11bioinspired36TransientAreasSegmentationModuleImpl28_convertValarrayBuffer2cvMatERKSt8valarrayIbEjjRKNS_12_OutputArrayE(ptr nonnull align 8 poison, ptr noundef nonnull align 8 dereferenceable(16) %3, i32 noundef %6, i32 noundef %9, ptr noundef nonnull align 8 dereferenceable(24) %1)
  ret void
}